     1 00000000                                 ; vitality-ipl
     2 00000000                                 ; TAB=4
     3 00000000                                 
     4  = 0000000A                              CYLS	EQU    10
     5                                          		ORG    0x7c00
     6 00007C00                                 
     7 00007C00                                 ; FAT12磁盘格式记述
     8 00007C00                                 
     9 00007C00 EB 4D                           		JMP   entry
    10 00007C02 90                              		DB    0x90
    11 00007C03 56 49 54 41 4C 49 54 59         		DB    "VITALITY"    ;7 bytes
    12 00007C0B 0200                            		DW    512
    13 00007C0D 01                              		DB    1
    14 00007C0E 0001                            		DW    1
    15 00007C10 02                              		DB    2
    16 00007C11 00E0                            		DW    224
    17 00007C13 0B40                            		DW    2880
    18 00007C15 F0                              		DB    0xf0
    19 00007C16 0009                            		DW    9
    20 00007C18 0012                            		DW    18
    21 00007C1A 0002                            		DW    2
    22 00007C1C 00000000                        		DD    0
    23 00007C20 00000B40                        		DD    2880
    24 00007C24 00 00 29                        		DB    0,0,0x29
    25 00007C27 FFFFFFFF                        		DD    0xffffffff
    26 00007C2B 56 49 54 41 4C 49 54 59 4F 53   		DB    "VITALITYOS"  ;9 bytes
    27 00007C35 46 41 54 31 32 20 20 20         		DB    "FAT12   "    ;8 bytes
    28 00007C3D 00 00 00 00 00 00 00 00 00 00   		RESB  18
       00007C47 00 00 00 00 00 00 00 00 
    29 00007C4F                                 
    30 00007C4F                                 ; 主程序
    31 00007C4F                                 
    32 00007C4F                                 entry:
    33 00007C4F B8 0000                         		MOV    AX,0
    34 00007C52 8E D0                           		MOV    SS,AX
    35 00007C54 BC 7C00                         		MOV    SP,0x7c00
    36 00007C57 8E D8                           		MOV    DS,AX
    37 00007C59                                 
    38 00007C59                                 ; 读碟
    39 00007C59                                 
    40 00007C59 B8 0820                         		MOV    AX,0x0820
    41 00007C5C 8E C0                           		MOV    ES,AX
    42 00007C5E B5 00                           		MOV    CH,0
    43 00007C60 B6 00                           		MOV    DH,0
    44 00007C62 B1 02                           		MOV    CL,2
    45 00007C64                                 readloop:
    46 00007C64 BE 0000                         		MOV    SI,0    ; 记录尝试失败次数
    47 00007C67                                 retry:
    48 00007C67 B4 02                           		MOV    AH,0x02
    49 00007C69 B0 01                           		MOV    AL,1
    50 00007C6B BB 0000                         		MOV    BX,0
    51 00007C6E B2 00                           		MOV    DL,0x00
    52 00007C70 CD 13                           		INT    0x13
    53 00007C72 73 10                           		JNC    next
    54 00007C74 83 C6 01                        		ADD    SI,1
    55 00007C77 83 FE 05                        		CMP    SI,5
    56 00007C7A 73 32                           		JAE    error
    57 00007C7C B4 00                           		MOV    AH,0x00
    58 00007C7E B2 00                           		MOV    DL,0x00
    59 00007C80 CD 13                           		INT    0x13
    60 00007C82 EB E3                           		JMP    retry
    61 00007C84                                 next:
    62 00007C84 8C C0                           		MOV    AX,ES
    63 00007C86 05 0020                         		ADD    AX,0x0020
    64 00007C89 8E C0                           		MOV    ES,AX
    65 00007C8B 80 C1 01                        		ADD    CL,1
    66 00007C8E 80 F9 12                        		CMP    CL,18
    67 00007C91 76 D1                           		JBE    readloop
    68 00007C93 B1 01                           		MOV    CL,1
    69 00007C95 80 C6 01                        		ADD    DH,1
    70 00007C98 80 FE 02                        		CMP    DH,2
    71 00007C9B 72 C7                           		JB     readloop
    72 00007C9D B6 00                           		MOV    DH,0
    73 00007C9F 80 C5 01                        		ADD    CH,1
    74 00007CA2 80 FD 0A                        		CMP    CH,CYLS
    75 00007CA5 72 BD                           		JB     readloop
    76 00007CA7                                 
    77 00007CA7                                 ; 读取完毕，运行vitality.sys
    78 00007CA7                                 
    79 00007CA7 88 2E 0FF0                      		MOV    [0x0ff0],CH
    80 00007CAB E9 4552                         		JMP    0xc200
    81 00007CAE                                 
    82 00007CAE                                 error:
    83 00007CAE BE 7CC6                         		MOV    SI,msg
    84 00007CB1                                 putloop:
    85 00007CB1 8A 04                           		MOV    AL,[SI]
    86 00007CB3 83 C6 01                        		ADD    SI,1
    87 00007CB6 3C 00                           		CMP    AL,0
    88 00007CB8 74 09                           		JE     fin
    89 00007CBA B4 0E                           		MOV    AH,0x0e
    90 00007CBC BB 000F                         		MOV    BX,15
    91 00007CBF CD 10                           		INT    0x10
    92 00007CC1 EB EE                           		JMP    putloop
    93 00007CC3                                 fin:
    94 00007CC3 F4                              		HLT
    95 00007CC4 EB FD                           		JMP    fin
    96 00007CC6                                 msg:
    97 00007CC6 0A 0A                           		DB    0x0a, 0x0a
    98 00007CC8 6C 6F 61 64 20 65 72 72 6F 72   		DB    "load error"
    99 00007CD2 0A                              		DB    0x0a
   100 00007CD3 00                              		DB    0
   101 00007CD4                                 
   102 00007CD4 00 00 00 00 00 00 00 00 00 00   		RESB 0x7dfe-$
       00007CDE 00 00 00 00 00 00 00 00 00 00 
       00007CE8 00 00 00 00 00 00 00 00 00 00 
       00007CF2 00 00 00 00 00 00 00 00 00 00 
       00007CFC 00 00 00 00 00 00 00 00 00 00 
       00007D06 00 00 00 00 00 00 00 00 00 00 
       00007D10 00 00 00 00 00 00 00 00 00 00 
       00007D1A 00 00 00 00 00 00 00 00 00 00 
       00007D24 00 00 00 00 00 00 00 00 00 00 
       00007D2E 00 00 00 00 00 00 00 00 00 00 
       00007D38 00 00 00 00 00 00 00 00 00 00 
       00007D42 00 00 00 00 00 00 00 00 00 00 
       00007D4C 00 00 00 00 00 00 00 00 00 00 
       00007D56 00 00 00 00 00 00 00 00 00 00 
       00007D60 00 00 00 00 00 00 00 00 00 00 
       00007D6A 00 00 00 00 00 00 00 00 00 00 
       00007D74 00 00 00 00 00 00 00 00 00 00 
       00007D7E 00 00 00 00 00 00 00 00 00 00 
       00007D88 00 00 00 00 00 00 00 00 00 00 
       00007D92 00 00 00 00 00 00 00 00 00 00 
       00007D9C 00 00 00 00 00 00 00 00 00 00 
       00007DA6 00 00 00 00 00 00 00 00 00 00 
       00007DB0 00 00 00 00 00 00 00 00 00 00 
       00007DBA 00 00 00 00 00 00 00 00 00 00 
       00007DC4 00 00 00 00 00 00 00 00 00 00 
       00007DCE 00 00 00 00 00 00 00 00 00 00 
       00007DD8 00 00 00 00 00 00 00 00 00 00 
       00007DE2 00 00 00 00 00 00 00 00 00 00 
       00007DEC 00 00 00 00 00 00 00 00 00 00 
       00007DF6 00 00 00 00 00 00 00 00 
   103 00007DFE                                 
   104 00007DFE 55 AA                           		DB    0x55, 0xaa
